target datalayout = "e-m:e-p270:32:32-p271:32:32-p272:64:64-i64:64-i128:128-f80:128-n8:16:32:64-S128"
target triple = "x86_64-pc-linux-gnu"

%"class.google::protobuf::internal::InternalMetadata" = type { i64 }
%"union.opencv_tensorflow::AttrValue::ValueUnion" = type { %"struct.google::protobuf::internal::ArenaStringPtr" }
%"struct.google::protobuf::internal::ArenaStringPtr" = type { %"class.google::protobuf::internal::TaggedPtr" }
%"class.google::protobuf::internal::TaggedPtr" = type { ptr }
%"class.google::protobuf::Message" = type { %"class.google::protobuf::MessageLite" }
%"class.google::protobuf::MessageLite" = type { ptr, %"class.google::protobuf::internal::InternalMetadata" }
%"struct.std::atomic" = type { %"struct.std::__atomic_base" }
%"struct.std::__atomic_base" = type { i32 }
%"class.google::protobuf::internal::CachedSize" = type { %"struct.std::atomic" }
%"struct.google::protobuf::internal::InternalMetadata::ContainerBase" = type { ptr }
%"class.opencv_tensorflow::AttrValue" = type { %"class.google::protobuf::Message", %"union.opencv_tensorflow::AttrValue::ValueUnion", %"class.google::protobuf::internal::CachedSize", [1 x i32] }

@_ZN17opencv_tensorflow19AttrValue_ListValueD1Ev = hidden unnamed_addr alias void (ptr), ptr @_ZN17opencv_tensorflow19AttrValue_ListValueD2Ev
@_ZN17opencv_tensorflow12NameAttrListD1Ev = hidden unnamed_addr alias void (ptr), ptr @_ZN17opencv_tensorflow12NameAttrListD2Ev

; Function Attrs: alwaysinline mustprogress nounwind uwtable
define linkonce_odr hidden noundef zeroext i1 @_ZNK6google8protobuf8internal16InternalMetadata19HasUnknownFieldsTagEv(ptr noundef nonnull align 8 dereferenceable(8) %0) #13 comdat align 2 {
  %2 = alloca ptr, align 8
  store ptr %0, ptr %2, align 8, !tbaa !53
  %3 = load ptr, ptr %2, align 8
  %4 = getelementptr inbounds nuw %"class.google::protobuf::internal::InternalMetadata", ptr %3, i32 0, i32 0
  %5 = load i64, ptr %4, align 8, !tbaa !221
  %6 = and i64 %5, 1
  %7 = icmp ne i64 %6, 0
  ret i1 %7
}

; Function Attrs: mustprogress nounwind uwtable
define linkonce_odr hidden noundef ptr @_ZNK6google8protobuf8internal16InternalMetadata8PtrValueINS0_5ArenaEEEPT_v(ptr noundef nonnull align 8 dereferenceable(8) %0) #7 comdat align 2 {
  %2 = alloca ptr, align 8
  store ptr %0, ptr %2, align 8, !tbaa !53
  %3 = load ptr, ptr %2, align 8
  %4 = getelementptr inbounds nuw %"class.google::protobuf::internal::InternalMetadata", ptr %3, i32 0, i32 0
  %5 = load i64, ptr %4, align 8, !tbaa !221
  %6 = and i64 %5, -4
  %7 = inttoptr i64 %6 to ptr
  ret ptr %7
}

; Function Attrs: mustprogress nounwind uwtable
define linkonce_odr hidden noundef ptr @_ZNK6google8protobuf8internal16InternalMetadata8PtrValueINS2_13ContainerBaseEEEPT_v(ptr noundef nonnull align 8 dereferenceable(8) %0) #7 comdat align 2 {
  %2 = alloca ptr, align 8
  store ptr %0, ptr %2, align 8, !tbaa !53
  %3 = load ptr, ptr %2, align 8
  %4 = getelementptr inbounds nuw %"class.google::protobuf::internal::InternalMetadata", ptr %3, i32 0, i32 0
  %5 = load i64, ptr %4, align 8, !tbaa !221
  %6 = and i64 %5, -4
  %7 = inttoptr i64 %6 to ptr
  ret ptr %7
}

; Function Attrs: alwaysinline mustprogress uwtable
define linkonce_odr hidden noundef zeroext i1 @_ZNK6google8protobuf8internal16InternalMetadata19have_unknown_fieldsEv(ptr noundef nonnull align 8 dereferenceable(8) %0) #8 comdat align 2 {
  %2 = alloca ptr, align 8
  store ptr %0, ptr %2, align 8, !tbaa !53
  %3 = load ptr, ptr %2, align 8
  %4 = call noundef zeroext i1 @_ZNK6google8protobuf8internal16InternalMetadata19HasUnknownFieldsTagEv(ptr noundef nonnull align 8 dereferenceable(8) %3)
  ret i1 %4
}

; Function Attrs: alwaysinline mustprogress uwtable
define linkonce_odr hidden noundef ptr @_ZNK6google8protobuf8internal16InternalMetadata5arenaEv(ptr noundef nonnull align 8 dereferenceable(8) %0) #8 comdat align 2 {
  %2 = alloca ptr, align 8
  %3 = alloca ptr, align 8
  store ptr %0, ptr %3, align 8, !tbaa !53
  %4 = load ptr, ptr %3, align 8
  %5 = call noundef zeroext i1 @_ZNK6google8protobuf8internal16InternalMetadata19have_unknown_fieldsEv(ptr noundef nonnull align 8 dereferenceable(8) %4)
  %6 = zext i1 %5 to i64
  %7 = call i64 @llvm.expect.i64(i64 %6, i64 0)
  %8 = icmp ne i64 %7, 0
  br i1 %8, label %9, label %13

9:                                                ; preds = %1
  %10 = call noundef ptr @_ZNK6google8protobuf8internal16InternalMetadata8PtrValueINS2_13ContainerBaseEEEPT_v(ptr noundef nonnull align 8 dereferenceable(8) %4)
  %11 = getelementptr inbounds nuw %"struct.google::protobuf::internal::InternalMetadata::ContainerBase", ptr %10, i32 0, i32 0
  %12 = load ptr, ptr %11, align 8, !tbaa !227
  store ptr %12, ptr %2, align 8
  br label %15

13:                                               ; preds = %1
  %14 = call noundef ptr @_ZNK6google8protobuf8internal16InternalMetadata8PtrValueINS0_5ArenaEEEPT_v(ptr noundef nonnull align 8 dereferenceable(8) %4)
  store ptr %14, ptr %2, align 8
  br label %15

15:                                               ; preds = %13, %9
  %16 = load ptr, ptr %2, align 8
  ret ptr %16
}

; Function Attrs: mustprogress uwtable
define linkonce_odr hidden noundef ptr @_ZNK6google8protobuf11MessageLite21GetArenaForAllocationEv(ptr noundef nonnull align 8 dereferenceable(16) %0) #4 comdat align 2 {
  %2 = alloca ptr, align 8
  store ptr %0, ptr %2, align 8, !tbaa !51
  %3 = load ptr, ptr %2, align 8
  %4 = getelementptr inbounds nuw %"class.google::protobuf::MessageLite", ptr %3, i32 0, i32 1
  %5 = call noundef ptr @_ZNK6google8protobuf8internal16InternalMetadata5arenaEv(ptr noundef nonnull align 8 dereferenceable(8) %4)
  ret ptr %5
}

; Function Attrs: inlinehint mustprogress nounwind uwtable
define linkonce_odr hidden noundef i32 @_ZNK17opencv_tensorflow9AttrValue10value_caseEv(ptr noundef nonnull align 8 dereferenceable(32) %0) #6 comdat align 2 {
  %2 = alloca ptr, align 8
  store ptr %0, ptr %2, align 8, !tbaa !130
  %3 = load ptr, ptr %2, align 8
  %4 = getelementptr inbounds nuw %"class.opencv_tensorflow::AttrValue", ptr %3, i32 0, i32 3
  %5 = getelementptr inbounds [1 x i32], ptr %4, i64 0, i64 0
  %6 = load i32, ptr %5, align 4, !tbaa !58
  ret i32 %6
}

; Function Attrs: mustprogress uwtable
define hidden void @_ZN17opencv_tensorflow9AttrValue11clear_valueEv(ptr noundef nonnull align 8 dereferenceable(32) %0) #4 align 2 {
  %2 = alloca ptr, align 8
  store ptr %0, ptr %2, align 8, !tbaa !130
  %3 = load ptr, ptr %2, align 8
  %4 = call noundef i32 @_ZNK17opencv_tensorflow9AttrValue10value_caseEv(ptr noundef nonnull align 8 dereferenceable(32) %3)
  switch i32 %4, label %56 [
    i32 2, label %5
    i32 3, label %8
    i32 4, label %9
    i32 5, label %10
    i32 6, label %11
    i32 7, label %12
    i32 8, label %22
    i32 1, label %32
    i32 10, label %42
    i32 9, label %52
    i32 0, label %55
  ]

5:                                                ; preds = %1
  %6 = getelementptr inbounds nuw %"class.opencv_tensorflow::AttrValue", ptr %3, i32 0, i32 1
  %7 = call noundef ptr @_ZNK6google8protobuf11MessageLite21GetArenaForAllocationEv(ptr noundef nonnull align 8 dereferenceable(16) %3)
  call void @_ZN6google8protobuf8internal14ArenaStringPtr7DestroyENS2_12EmptyDefaultEPNS0_5ArenaE(ptr noundef nonnull align 8 dereferenceable(8) %6, ptr noundef %7)
  br label %56

8:                                                ; preds = %1
  br label %56

9:                                                ; preds = %1
  br label %56

10:                                               ; preds = %1
  br label %56

11:                                               ; preds = %1
  br label %56

12:                                               ; preds = %1
  %13 = call noundef ptr @_ZNK6google8protobuf11MessageLite21GetArenaForAllocationEv(ptr noundef nonnull align 8 dereferenceable(16) %3)
  %14 = icmp eq ptr %13, null
  br i1 %14, label %15, label %21

15:                                               ; preds = %12
  %16 = getelementptr inbounds nuw %"class.opencv_tensorflow::AttrValue", ptr %3, i32 0, i32 1
  %17 = load ptr, ptr %16, align 8, !tbaa !83
  %18 = icmp eq ptr %17, null
  br i1 %18, label %20, label %19

19:                                               ; preds = %15
  call void @_ZN17opencv_tensorflow16TensorShapeProtoD1Ev(ptr noundef nonnull align 8 dereferenceable(48) %17) #3
  call void @_ZdlPv(ptr noundef %17) #23
  br label %20

20:                                               ; preds = %19, %15
  br label %21

21:                                               ; preds = %20, %12
  br label %56

22:                                               ; preds = %1
  %23 = call noundef ptr @_ZNK6google8protobuf11MessageLite21GetArenaForAllocationEv(ptr noundef nonnull align 8 dereferenceable(16) %3)
  %24 = icmp eq ptr %23, null
  br i1 %24, label %25, label %31

25:                                               ; preds = %22
  %26 = getelementptr inbounds nuw %"class.opencv_tensorflow::AttrValue", ptr %3, i32 0, i32 1
  %27 = load ptr, ptr %26, align 8, !tbaa !83
  %28 = icmp eq ptr %27, null
  br i1 %28, label %30, label %29

29:                                               ; preds = %25
  call void @_ZN17opencv_tensorflow11TensorProtoD1Ev(ptr noundef nonnull align 8 dereferenceable(224) %27) #3
  call void @_ZdlPv(ptr noundef %27) #23
  br label %30

30:                                               ; preds = %29, %25
  br label %31

31:                                               ; preds = %30, %22
  br label %56

32:                                               ; preds = %1
  %33 = call noundef ptr @_ZNK6google8protobuf11MessageLite21GetArenaForAllocationEv(ptr noundef nonnull align 8 dereferenceable(16) %3)
  %34 = icmp eq ptr %33, null
  br i1 %34, label %35, label %41

35:                                               ; preds = %32
  %36 = getelementptr inbounds nuw %"class.opencv_tensorflow::AttrValue", ptr %3, i32 0, i32 1
  %37 = load ptr, ptr %36, align 8, !tbaa !83
  %38 = icmp eq ptr %37, null
  br i1 %38, label %40, label %39

39:                                               ; preds = %35
  call void @_ZN17opencv_tensorflow19AttrValue_ListValueD1Ev(ptr noundef nonnull align 8 dereferenceable(176) %37) #3
  call void @_ZdlPv(ptr noundef %37) #23
  br label %40

40:                                               ; preds = %39, %35
  br label %41

41:                                               ; preds = %40, %32
  br label %56

42:                                               ; preds = %1
  %43 = call noundef ptr @_ZNK6google8protobuf11MessageLite21GetArenaForAllocationEv(ptr noundef nonnull align 8 dereferenceable(16) %3)
  %44 = icmp eq ptr %43, null
  br i1 %44, label %45, label %51

45:                                               ; preds = %42
  %46 = getelementptr inbounds nuw %"class.opencv_tensorflow::AttrValue", ptr %3, i32 0, i32 1
  %47 = load ptr, ptr %46, align 8, !tbaa !83
  %48 = icmp eq ptr %47, null
  br i1 %48, label %50, label %49

49:                                               ; preds = %45
  call void @_ZN17opencv_tensorflow12NameAttrListD1Ev(ptr noundef nonnull align 8 dereferenceable(152) %47) #3
  call void @_ZdlPv(ptr noundef %47) #23
  br label %50

50:                                               ; preds = %49, %45
  br label %51

51:                                               ; preds = %50, %42
  br label %56

52:                                               ; preds = %1
  %53 = getelementptr inbounds nuw %"class.opencv_tensorflow::AttrValue", ptr %3, i32 0, i32 1
  %54 = call noundef ptr @_ZNK6google8protobuf11MessageLite21GetArenaForAllocationEv(ptr noundef nonnull align 8 dereferenceable(16) %3)
  call void @_ZN6google8protobuf8internal14ArenaStringPtr7DestroyENS2_12EmptyDefaultEPNS0_5ArenaE(ptr noundef nonnull align 8 dereferenceable(8) %53, ptr noundef %54)
  br label %56

55:                                               ; preds = %1
  br label %56

56:                                               ; preds = %1, %55, %52, %51, %41, %31, %21, %11, %10, %9, %8, %5
  %57 = getelementptr inbounds nuw %"class.opencv_tensorflow::AttrValue", ptr %3, i32 0, i32 3
  %58 = getelementptr inbounds [1 x i32], ptr %57, i64 0, i64 0
  store i32 0, ptr %58, align 4, !tbaa !58
  ret void
}