; Function Attrs: mustprogress uwtable
define hidden void @_ZN17opencv_tensorflow9AttrValue11clear_valueEv(ptr noundef nonnull align 8 dereferenceable(32) %0) local_unnamed_addr #3 align 2 personality ptr @__gxx_personality_v0 {
  %2 = getelementptr inbounds nuw i8, ptr %0, i64 28
  %3 = load i32, ptr %2, align 4, !tbaa !79
  switch i32 %3, label %122 [
    i32 2, label %4
    i32 9, label %113
    i32 10, label %55
    i32 1, label %41
    i32 8, label %27
    i32 7, label %13
  ]

4:                                                ; preds = %1
  %5 = getelementptr inbounds nuw i8, ptr %0, i64 16
  %6 = getelementptr inbounds nuw i8, ptr %0, i64 8
  %7 = load i64, ptr %6, align 8, !tbaa !16
  %8 = and i64 %7, 1
  %.not.i = icmp eq i64 %8, 0
  %9 = and i64 %7, -4
  %10 = inttoptr i64 %9 to ptr
  br i1 %.not.i, label %_ZNK6google8protobuf11MessageLite21GetArenaForAllocationEv.exit, label %11, !prof !36

11:                                               ; preds = %4
  %12 = load ptr, ptr %10, align 8, !tbaa !37
  br label %_ZNK6google8protobuf11MessageLite21GetArenaForAllocationEv.exit

_ZNK6google8protobuf11MessageLite21GetArenaForAllocationEv.exit: ; preds = %4, %11
  %.0.i.i = phi ptr [ %12, %11 ], [ %10, %4 ]
  tail call void @_ZN6google8protobuf8internal14ArenaStringPtr7DestroyENS2_12EmptyDefaultEPNS0_5ArenaE(ptr noundef nonnull align 8 dereferenceable(8) %5, ptr noundef %.0.i.i)
  br label %122

13:                                               ; preds = %1
  %14 = getelementptr inbounds nuw i8, ptr %0, i64 8
  %15 = load i64, ptr %14, align 8, !tbaa !16
  %16 = and i64 %15, 1
  %.not.i4 = icmp eq i64 %16, 0
  %17 = and i64 %15, -4
  %18 = inttoptr i64 %17 to ptr
  br i1 %.not.i4, label %_ZNK6google8protobuf11MessageLite21GetArenaForAllocationEv.exit6, label %19, !prof !36

19:                                               ; preds = %13
  %20 = load ptr, ptr %18, align 8, !tbaa !37
  br label %_ZNK6google8protobuf11MessageLite21GetArenaForAllocationEv.exit6

_ZNK6google8protobuf11MessageLite21GetArenaForAllocationEv.exit6: ; preds = %13, %19
  %.0.i.i5 = phi ptr [ %20, %19 ], [ %18, %13 ]
  %21 = icmp eq ptr %.0.i.i5, null
  br i1 %21, label %22, label %122

22:                                               ; preds = %_ZNK6google8protobuf11MessageLite21GetArenaForAllocationEv.exit6
  %23 = getelementptr inbounds nuw i8, ptr %0, i64 16
  %24 = load ptr, ptr %23, align 8, !tbaa !49
  %25 = icmp eq ptr %24, null
  br i1 %25, label %122, label %26

26:                                               ; preds = %22
  tail call void @_ZN17opencv_tensorflow16TensorShapeProtoD1Ev(ptr noundef nonnull align 8 dereferenceable(48) %24) #30
  tail call void @_ZdlPv(ptr noundef nonnull %24) #31
  br label %122

27:                                               ; preds = %1
  %28 = getelementptr inbounds nuw i8, ptr %0, i64 8
  %29 = load i64, ptr %28, align 8, !tbaa !16
  %30 = and i64 %29, 1
  %.not.i7 = icmp eq i64 %30, 0
  %31 = and i64 %29, -4
  %32 = inttoptr i64 %31 to ptr
  br i1 %.not.i7, label %_ZNK6google8protobuf11MessageLite21GetArenaForAllocationEv.exit9, label %33, !prof !36

33:                                               ; preds = %27
  %34 = load ptr, ptr %32, align 8, !tbaa !37
  br label %_ZNK6google8protobuf11MessageLite21GetArenaForAllocationEv.exit9

_ZNK6google8protobuf11MessageLite21GetArenaForAllocationEv.exit9: ; preds = %27, %33
  %.0.i.i8 = phi ptr [ %34, %33 ], [ %32, %27 ]
  %35 = icmp eq ptr %.0.i.i8, null
  br i1 %35, label %36, label %122

36:                                               ; preds = %_ZNK6google8protobuf11MessageLite21GetArenaForAllocationEv.exit9
  %37 = getelementptr inbounds nuw i8, ptr %0, i64 16
  %38 = load ptr, ptr %37, align 8, !tbaa !49
  %39 = icmp eq ptr %38, null
  br i1 %39, label %122, label %40

40:                                               ; preds = %36
  tail call void @_ZN17opencv_tensorflow11TensorProtoD1Ev(ptr noundef nonnull align 8 dereferenceable(224) %38) #30
  tail call void @_ZdlPv(ptr noundef nonnull %38) #31
  br label %122

41:                                               ; preds = %1
  %42 = getelementptr inbounds nuw i8, ptr %0, i64 8
  %43 = load i64, ptr %42, align 8, !tbaa !16
  %44 = and i64 %43, 1
  %.not.i10 = icmp eq i64 %44, 0
  %45 = and i64 %43, -4
  %46 = inttoptr i64 %45 to ptr
  br i1 %.not.i10, label %_ZNK6google8protobuf11MessageLite21GetArenaForAllocationEv.exit12, label %47, !prof !36

47:                                               ; preds = %41
  %48 = load ptr, ptr %46, align 8, !tbaa !37
  br label %_ZNK6google8protobuf11MessageLite21GetArenaForAllocationEv.exit12

_ZNK6google8protobuf11MessageLite21GetArenaForAllocationEv.exit12: ; preds = %41, %47
  %.0.i.i11 = phi ptr [ %48, %47 ], [ %46, %41 ]
  %49 = icmp eq ptr %.0.i.i11, null
  br i1 %49, label %50, label %122

50:                                               ; preds = %_ZNK6google8protobuf11MessageLite21GetArenaForAllocationEv.exit12
  %51 = getelementptr inbounds nuw i8, ptr %0, i64 16
  %52 = load ptr, ptr %51, align 8, !tbaa !49
  %53 = icmp eq ptr %52, null
  br i1 %53, label %122, label %54

54:                                               ; preds = %50
  tail call void @_ZN17opencv_tensorflow19AttrValue_ListValueD2Ev(ptr noundef nonnull align 8 dereferenceable(176) %52) #30
  tail call void @_ZdlPv(ptr noundef nonnull %52) #31
  br label %122

55:                                               ; preds = %1
  %56 = getelementptr inbounds nuw i8, ptr %0, i64 8
  %57 = load i64, ptr %56, align 8, !tbaa !16
  %58 = and i64 %57, 1
  %.not.i13 = icmp eq i64 %58, 0
  %59 = and i64 %57, -4
  %60 = inttoptr i64 %59 to ptr
  br i1 %.not.i13, label %_ZNK6google8protobuf11MessageLite21GetArenaForAllocationEv.exit15, label %61, !prof !36

61:                                               ; preds = %55
  %62 = load ptr, ptr %60, align 8, !tbaa !37
  br label %_ZNK6google8protobuf11MessageLite21GetArenaForAllocationEv.exit15

_ZNK6google8protobuf11MessageLite21GetArenaForAllocationEv.exit15: ; preds = %55, %61
  %.0.i.i14 = phi ptr [ %62, %61 ], [ %60, %55 ]
  %63 = icmp eq ptr %.0.i.i14, null
  br i1 %63, label %64, label %122

64:                                               ; preds = %_ZNK6google8protobuf11MessageLite21GetArenaForAllocationEv.exit15
  %65 = getelementptr inbounds nuw i8, ptr %0, i64 16
  %66 = load ptr, ptr %65, align 8, !tbaa !49
  %67 = icmp eq ptr %66, null
  br i1 %67, label %122, label %68

68:                                               ; preds = %64
  %69 = getelementptr inbounds nuw i8, ptr %66, i64 8
  %70 = load i64, ptr %69, align 8, !tbaa !16
  %71 = and i64 %70, 1
  %.not.i22 = icmp eq i64 %71, 0
  %72 = and i64 %70, -4
  %73 = inttoptr i64 %72 to ptr
  br i1 %.not.i22, label %_ZNK6google8protobuf11MessageLite21GetArenaForAllocationEv.exit24, label %74, !prof !36

74:                                               ; preds = %68
  %75 = load ptr, ptr %73, align 8, !tbaa !37
  br label %_ZNK6google8protobuf11MessageLite21GetArenaForAllocationEv.exit24

_ZNK6google8protobuf11MessageLite21GetArenaForAllocationEv.exit24: ; preds = %74, %68
  %.0.i.i23 = phi ptr [ %75, %74 ], [ %73, %68 ]
  %.not.i16 = icmp eq ptr %.0.i.i23, null
  br i1 %.not.i16, label %76, label %_ZN17opencv_tensorflow12NameAttrListD2Ev.exit

76:                                               ; preds = %_ZNK6google8protobuf11MessageLite21GetArenaForAllocationEv.exit24
  %77 = getelementptr inbounds nuw i8, ptr %66, i64 136
  %78 = load ptr, ptr %77, align 8, !tbaa !114
  %79 = icmp eq ptr %78, @_ZN6google8protobuf8internal26fixed_address_empty_stringB5cxx11E
  br i1 %79, label %_ZN17opencv_tensorflow12NameAttrList10SharedDtorEv.exit, label %80

80:                                               ; preds = %76
  invoke void @_ZN6google8protobuf8internal14ArenaStringPtr22DestroyNoArenaSlowPathEv(ptr noundef nonnull align 8 dereferenceable(8) %77)
          to label %._ZN17opencv_tensorflow12NameAttrList10SharedDtorEv.exit_crit_edge unwind label %82

._ZN17opencv_tensorflow12NameAttrList10SharedDtorEv.exit_crit_edge: ; preds = %80
  %.pre = load i64, ptr %69, align 8, !tbaa !16
  %.pre26 = and i64 %.pre, 1
  br label %_ZN17opencv_tensorflow12NameAttrList10SharedDtorEv.exit

_ZN17opencv_tensorflow12NameAttrList10SharedDtorEv.exit: ; preds = %._ZN17opencv_tensorflow12NameAttrList10SharedDtorEv.exit_crit_edge, %76
  %.pre-phi = phi i64 [ %.pre26, %._ZN17opencv_tensorflow12NameAttrList10SharedDtorEv.exit_crit_edge ], [ %71, %76 ]
  %.not.i20 = icmp eq i64 %.pre-phi, 0
  br i1 %.not.i20, label %_ZN17opencv_tensorflow12NameAttrListD2Ev.exit, label %81

81:                                               ; preds = %_ZN17opencv_tensorflow12NameAttrList10SharedDtorEv.exit
  invoke void @_ZN6google8protobuf8internal16InternalMetadata21DeleteOutOfLineHelperINS0_15UnknownFieldSetEEEvv(ptr noundef nonnull align 8 dereferenceable(8) %69)
          to label %_ZN17opencv_tensorflow12NameAttrListD2Ev.exit unwind label %82

82:                                               ; preds = %80, %81
  %83 = landingpad { ptr, i32 }
          catch ptr null
  %84 = extractvalue { ptr, i32 } %83, 0
  tail call void @__clang_call_terminate(ptr %84) #29
  unreachable

_ZN17opencv_tensorflow12NameAttrListD2Ev.exit:    ; preds = %_ZN17opencv_tensorflow12NameAttrList10SharedDtorEv.exit, %81, %_ZNK6google8protobuf11MessageLite21GetArenaForAllocationEv.exit24
  %85 = getelementptr inbounds nuw i8, ptr %66, i64 16
  store ptr getelementptr inbounds nuw inrange(-16, 192) (i8, ptr @_ZTVN6google8protobuf8internal8MapFieldIN17opencv_tensorflow31NameAttrList_AttrEntry_DoNotUseENSt7__cxx1112basic_stringIcSt11char_traitsIcESaIcEEENS3_9AttrValueELNS1_14WireFormatLite9FieldTypeE9ELSD_11EEE, i64 16), ptr %85, align 8, !tbaa !19
  %86 = getelementptr inbounds nuw i8, ptr %66, i64 88
  %87 = getelementptr inbounds nuw i8, ptr %66, i64 128
  %88 = load ptr, ptr %87, align 8, !tbaa !116
  %89 = icmp eq ptr %88, null
  br i1 %89, label %90, label %_ZN6google8protobuf3MapINSt7__cxx1112basic_stringIcSt11char_traitsIcESaIcEEEN17opencv_tensorflow9AttrValueEED2Ev.exit

90:                                               ; preds = %_ZN17opencv_tensorflow12NameAttrListD2Ev.exit
  %91 = getelementptr inbounds nuw i8, ptr %66, i64 96
  %92 = load i64, ptr %91, align 8, !tbaa !118
  %.not.i.i25 = icmp eq i64 %92, 1
  br i1 %.not.i.i25, label %_ZN6google8protobuf3MapINSt7__cxx1112basic_stringIcSt11char_traitsIcESaIcEEEN17opencv_tensorflow9AttrValueEED2Ev.exit, label %93

93:                                               ; preds = %90
  invoke void @_ZN6google8protobuf3MapINSt7__cxx1112basic_stringIcSt11char_traitsIcESaIcEEEN17opencv_tensorflow9AttrValueEE8InnerMap5clearEv(ptr noundef nonnull align 8 dereferenceable(48) %86)
          to label %94 unwind label %100

94:                                               ; preds = %93
  %95 = load i64, ptr %87, align 8, !tbaa !98
  %96 = icmp eq i64 %95, 0
  br i1 %96, label %97, label %_ZN6google8protobuf3MapINSt7__cxx1112basic_stringIcSt11char_traitsIcESaIcEEEN17opencv_tensorflow9AttrValueEED2Ev.exit

97:                                               ; preds = %94
  %98 = getelementptr inbounds nuw i8, ptr %66, i64 120
  %99 = load ptr, ptr %98, align 8, !tbaa !121
  tail call void @_ZdlPv(ptr noundef %99) #30
  br label %_ZN6google8protobuf3MapINSt7__cxx1112basic_stringIcSt11char_traitsIcESaIcEEEN17opencv_tensorflow9AttrValueEED2Ev.exit

100:                                              ; preds = %93
  %101 = landingpad { ptr, i32 }
          catch ptr null
  %102 = extractvalue { ptr, i32 } %101, 0
  tail call void @__clang_call_terminate(ptr %102) #29
  unreachable

_ZN6google8protobuf3MapINSt7__cxx1112basic_stringIcSt11char_traitsIcESaIcEEEN17opencv_tensorflow9AttrValueEED2Ev.exit: ; preds = %94, %97, %_ZN17opencv_tensorflow12NameAttrListD2Ev.exit, %90
  tail call void @_ZN6google8protobuf8internal12MapFieldBaseD2Ev(ptr noundef nonnull align 8 dereferenceable(120) %85) #30
  store ptr getelementptr inbounds nuw inrange(-16, 104) (i8, ptr @_ZTVN6google8protobuf11MessageLiteE, i64 16), ptr %66, align 8, !tbaa !19
  %103 = load i64, ptr %69, align 8, !tbaa !16
  %104 = and i64 %103, 2
  %.not.i.i = icmp eq i64 %104, 0
  br i1 %.not.i.i, label %_ZN6google8protobuf11MessageLiteD2Ev.exit, label %105

105:                                              ; preds = %_ZN6google8protobuf3MapINSt7__cxx1112basic_stringIcSt11char_traitsIcESaIcEEEN17opencv_tensorflow9AttrValueEED2Ev.exit
  %106 = and i64 %103, 1
  %.not1.i.i = icmp eq i64 %106, 0
  %107 = and i64 %103, -4
  %108 = inttoptr i64 %107 to ptr
  br i1 %.not1.i.i, label %_ZNK6google8protobuf8internal16InternalMetadata5arenaEv.exit.i.i, label %109, !prof !36

109:                                              ; preds = %105
  %110 = load ptr, ptr %108, align 8, !tbaa !37
  br label %_ZNK6google8protobuf8internal16InternalMetadata5arenaEv.exit.i.i

_ZNK6google8protobuf8internal16InternalMetadata5arenaEv.exit.i.i: ; preds = %109, %105
  %.0.i.i.i = phi ptr [ %110, %109 ], [ %108, %105 ]
  %111 = icmp eq ptr %.0.i.i.i, null
  br i1 %111, label %_ZN6google8protobuf11MessageLiteD2Ev.exit, label %112

112:                                              ; preds = %_ZNK6google8protobuf8internal16InternalMetadata5arenaEv.exit.i.i
  tail call void @_ZN6google8protobuf8internal15ThreadSafeArenaD1Ev(ptr noundef nonnull align 8 dereferenceable(32) %.0.i.i.i) #30
  tail call void @_ZdlPv(ptr noundef nonnull %.0.i.i.i) #31
  br label %_ZN6google8protobuf11MessageLiteD2Ev.exit

_ZN6google8protobuf11MessageLiteD2Ev.exit:        ; preds = %_ZN6google8protobuf3MapINSt7__cxx1112basic_stringIcSt11char_traitsIcESaIcEEEN17opencv_tensorflow9AttrValueEED2Ev.exit, %_ZNK6google8protobuf8internal16InternalMetadata5arenaEv.exit.i.i, %112
  tail call void @_ZdlPv(ptr noundef nonnull %66) #31
  br label %122

113:                                              ; preds = %1
  %114 = getelementptr inbounds nuw i8, ptr %0, i64 16
  %115 = getelementptr inbounds nuw i8, ptr %0, i64 8
  %116 = load i64, ptr %115, align 8, !tbaa !16
  %117 = and i64 %116, 1
  %.not.i17 = icmp eq i64 %117, 0
  %118 = and i64 %116, -4
  %119 = inttoptr i64 %118 to ptr
  br i1 %.not.i17, label %_ZNK6google8protobuf11MessageLite21GetArenaForAllocationEv.exit19, label %120, !prof !36

120:                                              ; preds = %113
  %121 = load ptr, ptr %119, align 8, !tbaa !37
  br label %_ZNK6google8protobuf11MessageLite21GetArenaForAllocationEv.exit19

_ZNK6google8protobuf11MessageLite21GetArenaForAllocationEv.exit19: ; preds = %113, %120
  %.0.i.i18 = phi ptr [ %121, %120 ], [ %119, %113 ]
  tail call void @_ZN6google8protobuf8internal14ArenaStringPtr7DestroyENS2_12EmptyDefaultEPNS0_5ArenaE(ptr noundef nonnull align 8 dereferenceable(8) %114, ptr noundef %.0.i.i18)
  br label %122

122:                                              ; preds = %_ZNK6google8protobuf11MessageLite21GetArenaForAllocationEv.exit15, %_ZN6google8protobuf11MessageLiteD2Ev.exit, %64, %_ZNK6google8protobuf11MessageLite21GetArenaForAllocationEv.exit12, %54, %50, %_ZNK6google8protobuf11MessageLite21GetArenaForAllocationEv.exit9, %40, %36, %_ZNK6google8protobuf11MessageLite21GetArenaForAllocationEv.exit6, %26, %22, %_ZNK6google8protobuf11MessageLite21GetArenaForAllocationEv.exit19, %_ZNK6google8protobuf11MessageLite21GetArenaForAllocationEv.exit, %1
  store i32 0, ptr %2, align 4, !tbaa !79
  ret void
}